; Function Attrs: mustprogress nofree norecurse nosync nounwind willreturn memory(read, inaccessiblemem: none) uwtable
define internal range(i32 0, 19) i32 @HIDAPI_Driver8BitDo_GetJoystickCapabilities(ptr noundef readonly captures(none) %0, ptr readnone captures(none) %1) #2 {
  %3 = getelementptr inbounds nuw i8, ptr %0, i64 112
  %4 = load ptr, ptr %3, align 8
  %5 = getelementptr inbounds nuw i8, ptr %4, i64 4
  %6 = load i8, ptr %5, align 4, !range !6, !noundef !7
  %7 = shl nuw nsw i8 %6, 4
  %8 = getelementptr inbounds nuw i8, ptr %4, i64 6
  %9 = load i8, ptr %8, align 2, !range !6, !noundef !7
  %10 = shl nuw nsw i8 %9, 1
  %.15 = or disjoint i8 %10, %7
  %.1 = zext nneg i8 %.15 to i32
  ret i32 %.1
}